LX51 LINKER/LOCATER V4.66.97.0                                                          11/21/2021  20:07:12  PAGE 1


LX51 LINKER/LOCATER V4.66.97.0, INVOKED BY:
C:\SOFTWARE\KEIL_V5\C51\BIN\LX51.EXE .\build\Target 1\LCD1602.o, .\build\Target 1\main.o, .\build\Target 1\STARTUP.o TO 
>> .\build\Target 1\#Template_Common PRINT (.\build\Target 1\#Template_Common.map) REMOVEUNUSED


CPU MODE:     8051 MODE
MEMORY MODEL: SMALL


INPUT MODULES INCLUDED:
  .\build\Target 1\LCD1602.o (LCD1602)
         COMMENT TYPE 0: C51 V9.60.0.0
  .\build\Target 1\main.o (MAIN)
         COMMENT TYPE 0: C51 V9.60.0.0
  .\build\Target 1\STARTUP.o (?C_STARTUP)
         COMMENT TYPE 1: A51 / ASM51 Assembler
  C:\SOFTWARE\KEIL_V5\C51\LIB\C51S.LIB (?C?CLDOPTR)
         COMMENT TYPE 1: A51 / ASM51 Assembler
  C:\SOFTWARE\KEIL_V5\C51\LIB\C51S.LIB (?C?IMUL)
         COMMENT TYPE 1: A51 / ASM51 Assembler
  C:\SOFTWARE\KEIL_V5\C51\LIB\C51S.LIB (?C?UIDIV)
         COMMENT TYPE 1: A51 / ASM51 Assembler


ACTIVE MEMORY CLASSES OF MODULE:  .\build\Target 1\#Template_Common (LCD1602)

BASE        START       END         USED      MEMORY CLASS
==========================================================
C:000000H   C:000000H   C:00FFFFH   00014EH   CODE
I:000000H   I:000000H   I:00007FH   00000BH   DATA
C:000000H   C:000000H   C:00FFFFH   00000FH   CONST
I:000000H   I:000000H   I:0000FFH   000001H   IDATA


MEMORY MAP OF MODULE:  .\build\Target 1\#Template_Common (LCD1602)


START     STOP      LENGTH    ALIGN  RELOC    MEMORY CLASS   SEGMENT NAME
=========================================================================

* * * * * * * * * * *   D A T A   M E M O R Y   * * * * * * * * * * * * *
000000H   000007H   000008H   ---    AT..     DATA           "REG BANK 0"
000008H   00000AH   000003H   BYTE   UNIT     DATA           _DATA_GROUP_
00000BH   00000BH   000001H   BYTE   UNIT     IDATA          ?STACK

* * * * * * * * * * *   C O D E   M E M O R Y   * * * * * * * * * * * * *
000000H   000002H   000003H   ---    OFFS..   CODE           ?CO??C_STARTUP?0
000003H   000096H   000094H   BYTE   UNIT     CODE           ?C?LIB_CODE
000097H   0000B9H   000023H   BYTE   UNIT     CODE           ?PR?_LCD_SHOWSTRING?LCD1602
0000BAH   0000D8H   00001FH   BYTE   UNIT     CODE           ?PR?MAIN?MAIN
0000D9H   0000F6H   00001EH   BYTE   UNIT     CODE           ?PR?_LCD_WRITEDATA?LCD1602
0000F7H   000114H   00001EH   BYTE   UNIT     CODE           ?PR?_LCD_SETCURSOR?LCD1602
000115H   000128H   000014H   BYTE   UNIT     CODE           ?PR?LCD_INIT?LCD1602
000129H   000137H   00000FH   BYTE   UNIT     CODE           ?PR?LCD_DELAY?LCD1602
000138H   000143H   00000CH   BYTE   UNIT     CODE           ?C_C51STARTUP
000144H   00014DH   00000AH   BYTE   UNIT     CODE           ?PR?_LCD_WRITECOMMAND?LCD1602
00014EH   00015CH   00000FH   BYTE   UNIT     CONST          ?CO?MAIN

* * * * * * * * *   R E M O V E D     S E G M E N T S   * * * * * * * *
   *DEL*:           00000AH   BYTE   UNIT     CODE           ?PR?_LCD_SHOWCHAR?LCD1602
   *DEL*:           000031H   BYTE   UNIT     CODE           ?PR?_LCD_POW?LCD1602
   *DEL*:           000004H   BYTE   UNIT     DATA           ?DT?_LCD_POW?LCD1602
   *DEL*:           000024H   BYTE   UNIT     CODE           ?PR?_LCD_SHOWNUM?LCD1602
   *DEL*:           000005H   BYTE   UNIT     DATA           ?DT?_LCD_SHOWNUM?LCD1602
   *DEL*:           00004AH   BYTE   UNIT     CODE           ?PR?_LCD_SHOWSIGNEDNUM?LCD1602
   *DEL*:           000007H   BYTE   UNIT     DATA           ?DT?_LCD_SHOWSIGNEDNUM?LCD1602
LX51 LINKER/LOCATER V4.66.97.0                                                        11/21/2021  20:07:12  PAGE 2


   *DEL*:           00004BH   BYTE   UNIT     CODE           ?PR?_LCD_SHOWHEXNUM?LCD1602
   *DEL*:           000005H   BYTE   UNIT     DATA           ?DT?_LCD_SHOWHEXNUM?LCD1602
   *DEL*:           00003DH   BYTE   UNIT     CODE           ?PR?_LCD_SHOWBINNUM?LCD1602
   *DEL*:           000005H   BYTE   UNIT     DATA           ?DT?_LCD_SHOWBINNUM?LCD1602



OVERLAY MAP OF MODULE:   .\build\Target 1\#Template_Common (LCD1602)


FUNCTION/MODULE                  BIT_GROUP   DATA_GROUP 
--> CALLED FUNCTION/MODULE      START  STOP  START  STOP
========================================================
?C_C51STARTUP                   ----- -----  ----- -----
  +--> MAIN/MAIN

MAIN/MAIN                       ----- -----  ----- -----
  +--> LCD_INIT/LCD1602
  +--> _LCD_SHOWSTRING/LCD1602

LCD_INIT/LCD1602                ----- -----  ----- -----
  +--> _LCD_WRITECOMMAND/LCD1602

_LCD_WRITECOMMAND/LCD1602       ----- -----  ----- -----
  +--> LCD_DELAY/LCD1602

LCD_DELAY/LCD1602               ----- -----  ----- -----

_LCD_SHOWSTRING/LCD1602         ----- -----  0008H 000AH
  +--> _LCD_SETCURSOR/LCD1602
  +--> _LCD_WRITEDATA/LCD1602

_LCD_SETCURSOR/LCD1602          ----- -----  ----- -----
  +--> _LCD_WRITECOMMAND/LCD1602

_LCD_WRITEDATA/LCD1602          ----- -----  ----- -----
  +--> LCD_DELAY/LCD1602



PUBLIC SYMBOLS OF MODULE:  .\build\Target 1\#Template_Common (LCD1602)


      VALUE       CLASS    TYPE      PUBLIC SYMBOL NAME
      =================================================
*DEL*:00000000H   DATA     BYTE      ?_LCD_ShowBinNum?BYTE
*DEL*:00000000H   DATA     BYTE      ?_LCD_ShowHexNum?BYTE
*DEL*:00000000H   DATA     BYTE      ?_LCD_ShowNum?BYTE
*DEL*:00000000H   DATA     BYTE      ?_LCD_ShowSignedNum?BYTE
      01000003H   CODE     ---       ?C?CLDOPTR
      00000000H   NUMBER   ---       ?C?CODESEG
      01000030H   CODE     ---       ?C?IMUL
      01000042H   CODE     ---       ?C?UIDIV
      00000000H   NUMBER   ---       ?C?XDATASEG
      010000BAH   CODE     ---       ?C_START
      01000000H   CODE     ---       ?C_STARTUP
*DEL*:0000000AH   CODE     ---       _LCD_Pow
      010000F7H   CODE     ---       _LCD_SetCursor
*DEL*:00000000H   CODE     ---       _LCD_ShowBinNum
*DEL*:00000000H   CODE     ---       _LCD_ShowChar
*DEL*:00000000H   CODE     ---       _LCD_ShowHexNum
*DEL*:00000000H   CODE     ---       _LCD_ShowNum
*DEL*:00000000H   CODE     ---       _LCD_ShowSignedNum
      01000097H   CODE     ---       _LCD_ShowString
      01000144H   CODE     ---       _LCD_WriteCommand
LX51 LINKER/LOCATER V4.66.97.0                                                        11/21/2021  20:07:12  PAGE 3


      010000EDH   CODE     ---       _LCD_WriteData
      0100012FH   CODE     ---       LCD_Delay
      01000115H   CODE     ---       LCD_Init
      010000BAH   CODE     ---       main



SYMBOL TABLE OF MODULE:  .\build\Target 1\#Template_Common (LCD1602)

      VALUE       REP       CLASS    TYPE      SYMBOL NAME
      ====================================================
      ---         MODULE    ---      ---       LCD1602
      01000097H   PUBLIC    CODE     ---       _LCD_ShowString
      01000115H   PUBLIC    CODE     ---       LCD_Init
      010000F7H   PUBLIC    CODE     ---       _LCD_SetCursor
      010000EDH   PUBLIC    CODE     ---       _LCD_WriteData
      01000144H   PUBLIC    CODE     ---       _LCD_WriteCommand
      0100012FH   PUBLIC    CODE     ---       LCD_Delay

      01000129H   BLOCK     CODE     ---       LVL=0
      ---         BLOCKEND  ---      ---       LVL=0

      0100012FH   BLOCK     CODE     ---       LVL=0
      0100012FH   BLOCK     CODE     NEAR LAB  LVL=1
      00000007H   SYMBOL    DATA     VOID      i
      00000006H   SYMBOL    DATA     VOID      j
      ---         BLOCKEND  ---      ---       LVL=1
      ---         BLOCKEND  ---      ---       LVL=0

      01000144H   BLOCK     CODE     ---       LVL=0
      ---         BLOCKEND  ---      ---       LVL=0

      010000D9H   BLOCK     CODE     ---       LVL=0
      ---         BLOCKEND  ---      ---       LVL=0

      010000EDH   BLOCK     CODE     ---       LVL=0
      ---         BLOCKEND  ---      ---       LVL=0

      010000F7H   BLOCK     CODE     ---       LVL=0
      ---         BLOCKEND  ---      ---       LVL=0

      01000115H   BLOCK     CODE     ---       LVL=0
      ---         BLOCKEND  ---      ---       LVL=0

      01000097H   BLOCK     CODE     ---       LVL=0
      0100009DH   BLOCK     CODE     NEAR LAB  LVL=1
      00000005H   SYMBOL    DATA     VOID      i
      ---         BLOCKEND  ---      ---       LVL=1
      ---         BLOCKEND  ---      ---       LVL=0
      00000003H   SYMBOL    DATA     VOID      i
      00000006H   SYMBOL    DATA     VOID      Result
      00000002H   SYMBOL    DATA     VOID      i
      00000002H   SYMBOL    DATA     VOID      i
      00000002H   SYMBOL    DATA     VOID      i
      00000006H   SYMBOL    DATA     VOID      SingleNumber
      00000002H   SYMBOL    DATA     VOID      i

      ---         MODULE    ---      ---       MAIN
      010000BAH   PUBLIC    CODE     ---       main

      010000BAH   BLOCK     CODE     ---       LVL=0
      ---         BLOCKEND  ---      ---       LVL=0

      ---         MODULE    ---      ---       ?C_STARTUP
      01000000H   PUBLIC    CODE     ---       ?C_STARTUP
LX51 LINKER/LOCATER V4.66.97.0                                                        11/21/2021  20:07:12  PAGE 4



      ---         MODULE    ---      ---       ?C?CLDOPTR
      01000003H   PUBLIC    CODE     ---       ?C?CLDOPTR

      ---         MODULE    ---      ---       ?C?IMUL
      01000030H   PUBLIC    CODE     ---       ?C?IMUL

      ---         MODULE    ---      ---       ?C?UIDIV
      01000042H   PUBLIC    CODE     ---       ?C?UIDIV

Program Size: data=12.0 xdata=0 const=15 code=334
LX51 RUN COMPLETE.  0 WARNING(S),  0 ERROR(S)
